; Function Attrs: mustprogress nounwind uwtable
define noundef ptr @_ZNK8QuantLib5Error4whatEv(ptr nocapture noundef nonnull readonly align 8 dereferenceable(24) %this) unnamed_addr #8 align 2 personality ptr @__gxx_personality_v0 {
entry:
  %message_ = getelementptr inbounds nuw i8, ptr %this, i64 8
  %0 = load ptr, ptr %message_, align 8, !tbaa !36
  %cmp.not.i = icmp eq ptr %0, null
  br i1 %cmp.not.i, label %cond.false.i, label %invoke.cont, !prof !50

cond.false.i:                                     ; preds = %entry
  invoke void @_ZN5boost16assertion_failedEPKcS1_S1_l(ptr noundef nonnull @.str.6, ptr noundef nonnull @__PRETTY_FUNCTION__._ZNK5boost10shared_ptrINSt7__cxx1112basic_stringIcSt11char_traitsIcESaIcEEEEptEv, ptr noundef nonnull @.str.7, i64 poison)
          to label %.noexc unwind label %terminate.lpad

.noexc:                                           ; preds = %cond.false.i
  unreachable

invoke.cont:                                      ; preds = %entry
  %1 = load ptr, ptr %0, align 8, !tbaa !10
  ret ptr %1

terminate.lpad:                                   ; preds = %cond.false.i
  %2 = landingpad { ptr, i32 }
          catch ptr null
  %3 = extractvalue { ptr, i32 } %2, 0
  tail call void @__clang_call_terminate(ptr %3) #22
  unreachable
}